target datalayout = "e-m:e-p270:32:32-p271:32:32-p272:64:64-i64:64-i128:128-f80:128-n8:16:32:64-S128"
target triple = "x86_64-pc-linux-gnu"

%struct._zval_struct = type { %union._zend_value, %union.anon, %union.anon.2 }
%union._zend_value = type { i64 }
%union.anon = type { i32 }
%union.anon.2 = type { i32 }
%struct._zend_op = type { ptr, %union._znode_op, %union._znode_op, %union._znode_op, i32, i32, i8, i8, i8, i8 }
%union._znode_op = type { i32 }
%struct._zend_execute_data = type { ptr, ptr, ptr, ptr, %struct._zval_struct, ptr, ptr, ptr, ptr }

@zend_flf_functions = external global ptr, align 8

; Function Attrs: nounwind uwtable
define ptr @zend_active_function_ex(ptr noundef %0) #0 {
  %2 = alloca ptr, align 8
  %3 = alloca ptr, align 8
  %4 = alloca ptr, align 8
  store ptr %0, ptr %2, align 8
  %5 = load ptr, ptr %2, align 8
  %6 = getelementptr inbounds %struct._zend_execute_data, ptr %5, i32 0, i32 3
  %7 = load ptr, ptr %6, align 8
  store ptr %7, ptr %3, align 8
  %8 = load ptr, ptr %3, align 8
  %9 = load i8, ptr %8, align 8
  %10 = zext i8 %9 to i32
  %11 = icmp ne i32 %10, 1
  br i1 %11, label %12, label %36

12:                                               ; preds = %1
  %13 = load ptr, ptr %2, align 8
  %14 = getelementptr inbounds %struct._zend_execute_data, ptr %13, i32 0, i32 0
  %15 = load ptr, ptr %14, align 8
  store ptr %15, ptr %4, align 8
  %16 = load ptr, ptr %4, align 8
  %17 = getelementptr inbounds %struct._zend_op, ptr %16, i32 0, i32 6
  %18 = load i8, ptr %17, align 4
  %19 = zext i8 %18 to i32
  %20 = icmp sge i32 %19, 204
  br i1 %20, label %21, label %35

21:                                               ; preds = %12
  %22 = load ptr, ptr %4, align 8
  %23 = getelementptr inbounds %struct._zend_op, ptr %22, i32 0, i32 6
  %24 = load i8, ptr %23, align 4
  %25 = zext i8 %24 to i32
  %26 = icmp sle i32 %25, 207
  br i1 %26, label %27, label %35

27:                                               ; preds = %21
  %28 = load ptr, ptr @zend_flf_functions, align 8
  %29 = load ptr, ptr %4, align 8
  %30 = getelementptr inbounds %struct._zend_op, ptr %29, i32 0, i32 4
  %31 = load i32, ptr %30, align 4
  %32 = zext i32 %31 to i64
  %33 = getelementptr inbounds ptr, ptr %28, i64 %32
  %34 = load ptr, ptr %33, align 8
  store ptr %34, ptr %3, align 8
  br label %35

35:                                               ; preds = %27, %21, %12
  br label %36

36:                                               ; preds = %35, %1
  %37 = load ptr, ptr %3, align 8
  ret ptr %37
}