; Function Attrs: mustprogress nofree norecurse nosync nounwind willreturn memory(read, inaccessiblemem: none) uwtable
define ptr @zend_active_function_ex(ptr nocapture noundef readonly %0) local_unnamed_addr #4 {
  %2 = getelementptr inbounds i8, ptr %0, i64 24
  %3 = load ptr, ptr %2, align 8
  %4 = load i8, ptr %3, align 8
  %.not = icmp eq i8 %4, 1
  br i1 %.not, label %17, label %5

5:                                                ; preds = %1
  %6 = load ptr, ptr %0, align 8
  %7 = getelementptr inbounds i8, ptr %6, i64 28
  %8 = load i8, ptr %7, align 4
  %9 = and i8 %8, -4
  %or.cond = icmp eq i8 %9, -52
  br i1 %or.cond, label %10, label %17

10:                                               ; preds = %5
  %11 = load ptr, ptr @zend_flf_functions, align 8
  %12 = getelementptr inbounds i8, ptr %6, i64 20
  %13 = load i32, ptr %12, align 4
  %14 = zext i32 %13 to i64
  %15 = getelementptr inbounds ptr, ptr %11, i64 %14
  %16 = load ptr, ptr %15, align 8
  br label %17

17:                                               ; preds = %5, %10, %1
  %.0 = phi ptr [ %16, %10 ], [ %3, %5 ], [ %3, %1 ]
  ret ptr %.0
}